; Function Attrs: nounwind uwtable
define void @dt_ioppr_get_histogram_profile_type(ptr noundef writeonly captures(none) initializes((0, 4)) %0, ptr noundef writeonly captures(none) initializes((0, 8)) %1) local_unnamed_addr #0 {
  %3 = load ptr, ptr getelementptr inbounds nuw (i8, ptr @darktable, i64 216), align 8, !tbaa !25
  %4 = getelementptr inbounds nuw i8, ptr %3, i64 2184
  %5 = load i32, ptr %4, align 8, !tbaa !124
  %.not = icmp eq i32 %5, 0
  br i1 %.not, label %6, label %9

6:                                                ; preds = %2
  %7 = getelementptr inbounds nuw i8, ptr %3, i64 120
  %8 = load i32, ptr %7, align 8, !tbaa !126
  switch i32 %8, label %17 [
    i32 17, label %9
    i32 18, label %13
    i32 16, label %15
  ]

9:                                                ; preds = %6, %2
  %10 = getelementptr inbounds nuw i8, ptr %3, i64 116
  %11 = load i32, ptr %10, align 4, !tbaa !127
  store i32 %11, ptr %0, align 4, !tbaa !108
  %12 = getelementptr inbounds nuw i8, ptr %3, i64 1148
  store ptr %12, ptr %1, align 8, !tbaa !107
  br label %19

13:                                               ; preds = %6
  %14 = load ptr, ptr getelementptr inbounds nuw (i8, ptr @darktable, i64 64), align 8, !tbaa !128
  tail call void @dt_ioppr_get_work_profile_type(ptr noundef %14, ptr noundef %0, ptr noundef %1)
  br label %19

15:                                               ; preds = %6
  %16 = load ptr, ptr getelementptr inbounds nuw (i8, ptr @darktable, i64 64), align 8, !tbaa !128
  tail call void @dt_ioppr_get_export_profile_type(ptr noundef %16, ptr noundef %0, ptr noundef %1)
  br label %19

17:                                               ; preds = %6
  store i32 %8, ptr %0, align 4, !tbaa !108
  %18 = getelementptr inbounds nuw i8, ptr %3, i64 1660
  store ptr %18, ptr %1, align 8, !tbaa !107
  br label %19

19:                                               ; preds = %13, %17, %15, %9
  ret void
}